ARM GAS  C:\Users\nikod\AppData\Local\Temp\ccvTsnXv.s 			page 1


   1              		.syntax unified
   2              		.cpu cortex-m3
   3              		.fpu softvfp
   4              		.eabi_attribute 20, 1
   5              		.eabi_attribute 21, 1
   6              		.eabi_attribute 23, 3
   7              		.eabi_attribute 24, 1
   8              		.eabi_attribute 25, 1
   9              		.eabi_attribute 26, 1
  10              		.eabi_attribute 30, 1
  11              		.eabi_attribute 34, 1
  12              		.eabi_attribute 18, 4
  13              		.thumb
  14              		.syntax unified
  15              		.file	"main.c"
  16              		.text
  17              	.Ltext0:
  18              		.cfi_sections	.debug_frame
  19              		.section	.text.INT_SW,"ax",%progbits
  20              		.align	2
  21              		.global	INT_SW
  22              		.thumb
  23              		.thumb_func
  24              		.type	INT_SW, %function
  25              	INT_SW:
  26              	.LFB63:
  27              		.file 1 "main.c"
   1:main.c        **** /* ========================================
   2:main.c        ****  *
   3:main.c        ****  * Copyright YOUR COMPANY, THE YEAR
   4:main.c        ****  * All Rights Reserved
   5:main.c        ****  * UNPUBLISHED, LICENSED SOFTWARE.
   6:main.c        ****  *
   7:main.c        ****  * CONFIDENTIAL AND PROPRIETARY INFORMATION
   8:main.c        ****  * WHICH IS THE PROPERTY OF your company.
   9:main.c        ****  *
  10:main.c        ****  * ========================================
  11:main.c        **** */
  12:main.c        **** #include "project.h"
  13:main.c        **** 
  14:main.c        **** uint8 ECGrapido[]={36,36,36,36,37,38,49,50,61,73,78,79,86,90,77,77,66,64,55,47,34,39,37,42,40,35,35
  15:main.c        **** uint8 ECGideal[]={34,34,34,34,34,41,51,61,69,76,81,83,83,81,76,69,61,51,41,34,34,34,34,34,34,34,34,
  16:main.c        **** uint8 ECGlento[]={35,34,39,42,44,49,59,64,72,77,70,62,61,42,36,39,41,41,34,34,56,102,138,183,224,25
  17:main.c        **** uint8 ECGreal[]={37,37,37,37,38,38,50,51,62,73,78,80,86,90,77,78,66,65,55,48,35,40,38,43,41,37,36,3
  18:main.c        **** uint8 i;
  19:main.c        **** volatile uint8 cont=0;
  20:main.c        **** uint8 lim=83;//,83 para ECGideal,61 para ECGrapido,115 para ECGlento, 87 para ECGreal 
  21:main.c        **** 
  22:main.c        **** CY_ISR(INT_SW){
  28              		.loc 1 22 0
  29              		.cfi_startproc
  30              		@ args = 0, pretend = 0, frame = 0
  31              		@ frame_needed = 0, uses_anonymous_args = 0
  32 0000 08B5     		push	{r3, lr}
  33              		.cfi_def_cfa_offset 8
  34              		.cfi_offset 3, -8
  35              		.cfi_offset 14, -4
ARM GAS  C:\Users\nikod\AppData\Local\Temp\ccvTsnXv.s 			page 2


  23:main.c        ****     if(cont==3){
  36              		.loc 1 23 0
  37 0002 164B     		ldr	r3, .L11
  38 0004 1B78     		ldrb	r3, [r3]	@ zero_extendqisi2
  39 0006 DBB2     		uxtb	r3, r3
  40 0008 032B     		cmp	r3, #3
  41 000a 03D1     		bne	.L2
  24:main.c        ****         cont=0;
  42              		.loc 1 24 0
  43 000c 0022     		movs	r2, #0
  44 000e 134B     		ldr	r3, .L11
  45 0010 1A70     		strb	r2, [r3]
  46 0012 04E0     		b	.L3
  47              	.L2:
  25:main.c        ****     }else{
  26:main.c        ****         cont++;
  48              		.loc 1 26 0
  49 0014 114A     		ldr	r2, .L11
  50 0016 1378     		ldrb	r3, [r2]	@ zero_extendqisi2
  51 0018 0133     		adds	r3, r3, #1
  52 001a DBB2     		uxtb	r3, r3
  53 001c 1370     		strb	r3, [r2]
  54              	.L3:
  27:main.c        ****     }
  28:main.c        ****  switch (cont)
  55              		.loc 1 28 0
  56 001e 0F4B     		ldr	r3, .L11
  57 0020 1B78     		ldrb	r3, [r3]	@ zero_extendqisi2
  58 0022 DBB2     		uxtb	r3, r3
  59 0024 032B     		cmp	r3, #3
  60 0026 12D8     		bhi	.L4
  61 0028 DFE803F0 		tbb	[pc, r3]
  62              	.L6:
  63 002c 02       		.byte	(.L5-.L6)/2
  64 002d 06       		.byte	(.L7-.L6)/2
  65 002e 0A       		.byte	(.L8-.L6)/2
  66 002f 0E       		.byte	(.L9-.L6)/2
  67              		.p2align 1
  68              	.L5:
  29:main.c        ****     {
  30:main.c        ****         case 0:
  31:main.c        ****         lim=83;
  69              		.loc 1 31 0
  70 0030 5322     		movs	r2, #83
  71 0032 0B4B     		ldr	r3, .L11+4
  72 0034 1A70     		strb	r2, [r3]
  32:main.c        ****         break;
  73              		.loc 1 32 0
  74 0036 0AE0     		b	.L4
  75              	.L7:
  33:main.c        ****         case 1:
  34:main.c        ****         lim=87;
  76              		.loc 1 34 0
  77 0038 5722     		movs	r2, #87
  78 003a 094B     		ldr	r3, .L11+4
  79 003c 1A70     		strb	r2, [r3]
  35:main.c        ****         break;
ARM GAS  C:\Users\nikod\AppData\Local\Temp\ccvTsnXv.s 			page 3


  80              		.loc 1 35 0
  81 003e 06E0     		b	.L4
  82              	.L8:
  36:main.c        ****         case 2:
  37:main.c        ****         lim=61;
  83              		.loc 1 37 0
  84 0040 3D22     		movs	r2, #61
  85 0042 074B     		ldr	r3, .L11+4
  86 0044 1A70     		strb	r2, [r3]
  38:main.c        ****         break;
  87              		.loc 1 38 0
  88 0046 02E0     		b	.L4
  89              	.L9:
  39:main.c        ****         case 3:
  40:main.c        ****         lim=115;
  90              		.loc 1 40 0
  91 0048 7322     		movs	r2, #115
  92 004a 054B     		ldr	r3, .L11+4
  93 004c 1A70     		strb	r2, [r3]
  94              	.L4:
  41:main.c        ****         break;
  42:main.c        ****         
  43:main.c        ****         default:
  44:main.c        ****         break;
  45:main.c        ****     }
  46:main.c        ****     LEDS_Write(cont);
  95              		.loc 1 46 0
  96 004e 034B     		ldr	r3, .L11
  97 0050 1878     		ldrb	r0, [r3]	@ zero_extendqisi2
  98 0052 FFF7FEFF 		bl	LEDS_Write
  99              	.LVL0:
  47:main.c        ****     SW_ClearInterrupt();    
 100              		.loc 1 47 0
 101 0056 FFF7FEFF 		bl	SW_ClearInterrupt
 102              	.LVL1:
 103 005a 08BD     		pop	{r3, pc}
 104              	.L12:
 105              		.align	2
 106              	.L11:
 107 005c 00000000 		.word	.LANCHOR0
 108 0060 00000000 		.word	.LANCHOR1
 109              		.cfi_endproc
 110              	.LFE63:
 111              		.size	INT_SW, .-INT_SW
 112              		.section	.text.main,"ax",%progbits
 113              		.align	2
 114              		.global	main
 115              		.thumb
 116              		.thumb_func
 117              		.type	main, %function
 118              	main:
 119              	.LFB64:
  48:main.c        **** }
  49:main.c        **** 
  50:main.c        **** 
  51:main.c        **** 
  52:main.c        **** int main(void)
ARM GAS  C:\Users\nikod\AppData\Local\Temp\ccvTsnXv.s 			page 4


  53:main.c        **** {
 120              		.loc 1 53 0
 121              		.cfi_startproc
 122              		@ Volatile: function does not return.
 123              		@ args = 0, pretend = 0, frame = 0
 124              		@ frame_needed = 0, uses_anonymous_args = 0
 125 0000 08B5     		push	{r3, lr}
 126              		.cfi_def_cfa_offset 8
 127              		.cfi_offset 3, -8
 128              		.cfi_offset 14, -4
  54:main.c        ****     CyGlobalIntEnable; /* Enable global interrupts. */
 129              		.loc 1 54 0
 130              		.syntax unified
 131              	@ 54 "main.c" 1
 132 0002 62B6     		CPSIE   i
 133              	@ 0 "" 2
  55:main.c        ****     VDAC8_Start();
 134              		.loc 1 55 0
 135              		.thumb
 136              		.syntax unified
 137 0004 FFF7FEFF 		bl	VDAC8_Start
 138              	.LVL2:
  56:main.c        ****     ISR_StartEx(INT_SW);
 139              		.loc 1 56 0
 140 0008 2248     		ldr	r0, .L24
 141 000a FFF7FEFF 		bl	ISR_StartEx
 142              	.LVL3:
  57:main.c        ****     /* Place your initialization/startup code here (e.g. MyInst_Start()) */
  58:main.c        ****     VDAC8_SetValue(255);
 143              		.loc 1 58 0
 144 000e FF20     		movs	r0, #255
 145 0010 FFF7FEFF 		bl	VDAC8_SetValue
 146              	.LVL4:
  59:main.c        ****     LEDS_Write(cont);
 147              		.loc 1 59 0
 148 0014 204B     		ldr	r3, .L24+4
 149 0016 1878     		ldrb	r0, [r3]	@ zero_extendqisi2
 150 0018 FFF7FEFF 		bl	LEDS_Write
 151              	.LVL5:
 152              	.L22:
  60:main.c        ****     for(;;)
  61:main.c        ****     {
  62:main.c        ****         switch (cont)
 153              		.loc 1 62 0
 154 001c 1E4B     		ldr	r3, .L24+4
 155 001e 1B78     		ldrb	r3, [r3]	@ zero_extendqisi2
 156 0020 DBB2     		uxtb	r3, r3
 157 0022 032B     		cmp	r3, #3
 158 0024 25D8     		bhi	.L14
 159 0026 DFE803F0 		tbb	[pc, r3]
 160              	.L16:
 161 002a 02       		.byte	(.L15-.L16)/2
 162 002b 0A       		.byte	(.L17-.L16)/2
 163 002c 13       		.byte	(.L18-.L16)/2
 164 002d 1C       		.byte	(.L19-.L16)/2
 165              		.p2align 1
 166              	.L15:
ARM GAS  C:\Users\nikod\AppData\Local\Temp\ccvTsnXv.s 			page 5


  63:main.c        ****         {
  64:main.c        ****             case 0:
  65:main.c        ****             VDAC8_SetValue(ECGideal[i]);
 167              		.loc 1 65 0
 168 002e 1B4B     		ldr	r3, .L24+8
 169 0030 1B78     		ldrb	r3, [r3]	@ zero_extendqisi2
 170 0032 1B4A     		ldr	r2, .L24+12
 171 0034 1344     		add	r3, r3, r2
 172 0036 1879     		ldrb	r0, [r3, #4]	@ zero_extendqisi2
 173 0038 FFF7FEFF 		bl	VDAC8_SetValue
 174              	.LVL6:
  66:main.c        ****             break;
 175              		.loc 1 66 0
 176 003c 19E0     		b	.L14
 177              	.L17:
  67:main.c        ****             case 1:
  68:main.c        ****             VDAC8_SetValue(ECGreal[i]);
 178              		.loc 1 68 0
 179 003e 174B     		ldr	r3, .L24+8
 180 0040 1B78     		ldrb	r3, [r3]	@ zero_extendqisi2
 181 0042 174A     		ldr	r2, .L24+12
 182 0044 1344     		add	r3, r3, r2
 183 0046 93F85C00 		ldrb	r0, [r3, #92]	@ zero_extendqisi2
 184 004a FFF7FEFF 		bl	VDAC8_SetValue
 185              	.LVL7:
  69:main.c        ****             break;
 186              		.loc 1 69 0
 187 004e 10E0     		b	.L14
 188              	.L18:
  70:main.c        ****             case 2:
  71:main.c        ****             VDAC8_SetValue(ECGrapido[i]);
 189              		.loc 1 71 0
 190 0050 124B     		ldr	r3, .L24+8
 191 0052 1B78     		ldrb	r3, [r3]	@ zero_extendqisi2
 192 0054 124A     		ldr	r2, .L24+12
 193 0056 1344     		add	r3, r3, r2
 194 0058 93F8B400 		ldrb	r0, [r3, #180]	@ zero_extendqisi2
 195 005c FFF7FEFF 		bl	VDAC8_SetValue
 196              	.LVL8:
  72:main.c        ****             break;
 197              		.loc 1 72 0
 198 0060 07E0     		b	.L14
 199              	.L19:
  73:main.c        ****             case 3:
  74:main.c        ****             VDAC8_SetValue(ECGlento[i]);
 200              		.loc 1 74 0
 201 0062 0E4B     		ldr	r3, .L24+8
 202 0064 1B78     		ldrb	r3, [r3]	@ zero_extendqisi2
 203 0066 0E4A     		ldr	r2, .L24+12
 204 0068 1344     		add	r3, r3, r2
 205 006a 93F8F400 		ldrb	r0, [r3, #244]	@ zero_extendqisi2
 206 006e FFF7FEFF 		bl	VDAC8_SetValue
 207              	.LVL9:
 208              	.L14:
  75:main.c        ****             break;
  76:main.c        ****             default:
  77:main.c        ****             /*
ARM GAS  C:\Users\nikod\AppData\Local\Temp\ccvTsnXv.s 			page 6


  78:main.c        ****             VDAC8_SetValue(0);
  79:main.c        ****             CyDelay(1000);
  80:main.c        ****             VDAC8_SetValue(255);
  81:main.c        ****             CyDelay(1000);*/
  82:main.c        ****             break;
  83:main.c        ****         }
  84:main.c        ****         
  85:main.c        ****         if(i==lim){
 209              		.loc 1 85 0
 210 0072 0A4B     		ldr	r3, .L24+8
 211 0074 1B78     		ldrb	r3, [r3]	@ zero_extendqisi2
 212 0076 0A4A     		ldr	r2, .L24+12
 213 0078 1278     		ldrb	r2, [r2]	@ zero_extendqisi2
 214 007a 9342     		cmp	r3, r2
 215 007c 03D1     		bne	.L20
  86:main.c        ****             i=0;
 216              		.loc 1 86 0
 217 007e 0022     		movs	r2, #0
 218 0080 064B     		ldr	r3, .L24+8
 219 0082 1A70     		strb	r2, [r3]
 220 0084 02E0     		b	.L21
 221              	.L20:
  87:main.c        ****         }else{
  88:main.c        ****         i++;
 222              		.loc 1 88 0
 223 0086 0133     		adds	r3, r3, #1
 224 0088 044A     		ldr	r2, .L24+8
 225 008a 1370     		strb	r3, [r2]
 226              	.L21:
  89:main.c        ****         }
  90:main.c        ****         CyDelay(10);//Retardo de 10ms por que tienen un tiempo de muestreo de 100Hz
 227              		.loc 1 90 0
 228 008c 0A20     		movs	r0, #10
 229 008e FFF7FEFF 		bl	CyDelay
 230              	.LVL10:
  91:main.c        ****         
  92:main.c        ****     }
 231              		.loc 1 92 0
 232 0092 C3E7     		b	.L22
 233              	.L25:
 234              		.align	2
 235              	.L24:
 236 0094 00000000 		.word	INT_SW
 237 0098 00000000 		.word	.LANCHOR0
 238 009c 00000000 		.word	i
 239 00a0 00000000 		.word	.LANCHOR1
 240              		.cfi_endproc
 241              	.LFE64:
 242              		.size	main, .-main
 243              		.global	lim
 244              		.global	cont
 245              		.comm	i,1,1
 246              		.global	ECGreal
 247              		.global	ECGlento
 248              		.global	ECGideal
 249              		.global	ECGrapido
 250              		.data
ARM GAS  C:\Users\nikod\AppData\Local\Temp\ccvTsnXv.s 			page 7


 251              		.align	2
 252              		.set	.LANCHOR1,. + 0
 253              		.type	lim, %object
 254              		.size	lim, 1
 255              	lim:
 256 0000 53       		.byte	83
 257 0001 000000   		.space	3
 258              		.type	ECGideal, %object
 259              		.size	ECGideal, 85
 260              	ECGideal:
 261 0004 22       		.byte	34
 262 0005 22       		.byte	34
 263 0006 22       		.byte	34
 264 0007 22       		.byte	34
 265 0008 22       		.byte	34
 266 0009 29       		.byte	41
 267 000a 33       		.byte	51
 268 000b 3D       		.byte	61
 269 000c 45       		.byte	69
 270 000d 4C       		.byte	76
 271 000e 51       		.byte	81
 272 000f 53       		.byte	83
 273 0010 53       		.byte	83
 274 0011 51       		.byte	81
 275 0012 4C       		.byte	76
 276 0013 45       		.byte	69
 277 0014 3D       		.byte	61
 278 0015 33       		.byte	51
 279 0016 29       		.byte	41
 280 0017 22       		.byte	34
 281 0018 22       		.byte	34
 282 0019 22       		.byte	34
 283 001a 22       		.byte	34
 284 001b 22       		.byte	34
 285 001c 22       		.byte	34
 286 001d 22       		.byte	34
 287 001e 22       		.byte	34
 288 001f 22       		.byte	34
 289 0020 23       		.byte	35
 290 0021 25       		.byte	37
 291 0022 27       		.byte	39
 292 0023 27       		.byte	39
 293 0024 24       		.byte	36
 294 0025 22       		.byte	34
 295 0026 22       		.byte	34
 296 0027 22       		.byte	34
 297 0028 22       		.byte	34
 298 0029 22       		.byte	34
 299 002a 22       		.byte	34
 300 002b 22       		.byte	34
 301 002c 22       		.byte	34
 302 002d 22       		.byte	34
 303 002e 22       		.byte	34
 304 002f 22       		.byte	34
 305 0030 22       		.byte	34
 306 0031 22       		.byte	34
 307 0032 22       		.byte	34
ARM GAS  C:\Users\nikod\AppData\Local\Temp\ccvTsnXv.s 			page 8


 308 0033 22       		.byte	34
 309 0034 22       		.byte	34
 310 0035 22       		.byte	34
 311 0036 24       		.byte	36
 312 0037 2F       		.byte	47
 313 0038 39       		.byte	57
 314 0039 3F       		.byte	63
 315 003a 42       		.byte	66
 316 003b 42       		.byte	66
 317 003c 3E       		.byte	62
 318 003d 37       		.byte	55
 319 003e 2C       		.byte	44
 320 003f 22       		.byte	34
 321 0040 22       		.byte	34
 322 0041 22       		.byte	34
 323 0042 22       		.byte	34
 324 0043 22       		.byte	34
 325 0044 22       		.byte	34
 326 0045 29       		.byte	41
 327 0046 52       		.byte	82
 328 0047 7B       		.byte	123
 329 0048 A3       		.byte	-93
 330 0049 CC       		.byte	-52
 331 004a F6       		.byte	-10
 332 004b E7       		.byte	-25
 333 004c BE       		.byte	-66
 334 004d 96       		.byte	-106
 335 004e 6D       		.byte	109
 336 004f 44       		.byte	68
 337 0050 22       		.byte	34
 338 0051 18       		.byte	24
 339 0052 0E       		.byte	14
 340 0053 03       		.byte	3
 341 0054 06       		.byte	6
 342 0055 11       		.byte	17
 343 0056 1B       		.byte	27
 344 0057 22       		.byte	34
 345 0058 00       		.byte	0
 346 0059 000000   		.space	3
 347              		.type	ECGreal, %object
 348              		.size	ECGreal, 88
 349              	ECGreal:
 350 005c 25       		.byte	37
 351 005d 25       		.byte	37
 352 005e 25       		.byte	37
 353 005f 25       		.byte	37
 354 0060 26       		.byte	38
 355 0061 26       		.byte	38
 356 0062 32       		.byte	50
 357 0063 33       		.byte	51
 358 0064 3E       		.byte	62
 359 0065 49       		.byte	73
 360 0066 4E       		.byte	78
 361 0067 50       		.byte	80
 362 0068 56       		.byte	86
 363 0069 5A       		.byte	90
 364 006a 4D       		.byte	77
ARM GAS  C:\Users\nikod\AppData\Local\Temp\ccvTsnXv.s 			page 9


 365 006b 4E       		.byte	78
 366 006c 42       		.byte	66
 367 006d 41       		.byte	65
 368 006e 37       		.byte	55
 369 006f 30       		.byte	48
 370 0070 23       		.byte	35
 371 0071 28       		.byte	40
 372 0072 26       		.byte	38
 373 0073 2B       		.byte	43
 374 0074 29       		.byte	41
 375 0075 25       		.byte	37
 376 0076 24       		.byte	36
 377 0077 23       		.byte	35
 378 0078 2D       		.byte	45
 379 0079 24       		.byte	36
 380 007a 25       		.byte	37
 381 007b 29       		.byte	41
 382 007c 2E       		.byte	46
 383 007d 2B       		.byte	43
 384 007e 29       		.byte	41
 385 007f 20       		.byte	32
 386 0080 25       		.byte	37
 387 0081 2C       		.byte	44
 388 0082 24       		.byte	36
 389 0083 28       		.byte	40
 390 0084 24       		.byte	36
 391 0085 21       		.byte	33
 392 0086 25       		.byte	37
 393 0087 2B       		.byte	43
 394 0088 2D       		.byte	45
 395 0089 2B       		.byte	43
 396 008a 21       		.byte	33
 397 008b 24       		.byte	36
 398 008c 23       		.byte	35
 399 008d 24       		.byte	36
 400 008e 2D       		.byte	45
 401 008f 29       		.byte	41
 402 0090 37       		.byte	55
 403 0091 41       		.byte	65
 404 0092 3D       		.byte	61
 405 0093 4A       		.byte	74
 406 0094 40       		.byte	64
 407 0095 45       		.byte	69
 408 0096 3E       		.byte	62
 409 0097 33       		.byte	51
 410 0098 21       		.byte	33
 411 0099 26       		.byte	38
 412 009a 27       		.byte	39
 413 009b 27       		.byte	39
 414 009c 2B       		.byte	43
 415 009d 29       		.byte	41
 416 009e 31       		.byte	49
 417 009f 54       		.byte	84
 418 00a0 81       		.byte	-127
 419 00a1 9C       		.byte	-100
 420 00a2 C9       		.byte	-55
 421 00a3 EE       		.byte	-18
ARM GAS  C:\Users\nikod\AppData\Local\Temp\ccvTsnXv.s 			page 10


 422 00a4 E2       		.byte	-30
 423 00a5 BF       		.byte	-65
 424 00a6 91       		.byte	-111
 425 00a7 6F       		.byte	111
 426 00a8 45       		.byte	69
 427 00a9 2B       		.byte	43
 428 00aa 18       		.byte	24
 429 00ab 0D       		.byte	13
 430 00ac 0E       		.byte	14
 431 00ad 07       		.byte	7
 432 00ae 11       		.byte	17
 433 00af 1B       		.byte	27
 434 00b0 21       		.byte	33
 435 00b1 26       		.byte	38
 436 00b2 29       		.byte	41
 437 00b3 00       		.byte	0
 438              		.type	ECGrapido, %object
 439              		.size	ECGrapido, 63
 440              	ECGrapido:
 441 00b4 24       		.byte	36
 442 00b5 24       		.byte	36
 443 00b6 24       		.byte	36
 444 00b7 24       		.byte	36
 445 00b8 25       		.byte	37
 446 00b9 26       		.byte	38
 447 00ba 31       		.byte	49
 448 00bb 32       		.byte	50
 449 00bc 3D       		.byte	61
 450 00bd 49       		.byte	73
 451 00be 4E       		.byte	78
 452 00bf 4F       		.byte	79
 453 00c0 56       		.byte	86
 454 00c1 5A       		.byte	90
 455 00c2 4D       		.byte	77
 456 00c3 4D       		.byte	77
 457 00c4 42       		.byte	66
 458 00c5 40       		.byte	64
 459 00c6 37       		.byte	55
 460 00c7 2F       		.byte	47
 461 00c8 22       		.byte	34
 462 00c9 27       		.byte	39
 463 00ca 25       		.byte	37
 464 00cb 2A       		.byte	42
 465 00cc 28       		.byte	40
 466 00cd 23       		.byte	35
 467 00ce 23       		.byte	35
 468 00cf 23       		.byte	35
 469 00d0 38       		.byte	56
 470 00d1 38       		.byte	56
 471 00d2 3F       		.byte	63
 472 00d3 47       		.byte	71
 473 00d4 4C       		.byte	76
 474 00d5 46       		.byte	70
 475 00d6 3D       		.byte	61
 476 00d7 29       		.byte	41
 477 00d8 24       		.byte	36
 478 00d9 2B       		.byte	43
ARM GAS  C:\Users\nikod\AppData\Local\Temp\ccvTsnXv.s 			page 11


 479 00da 23       		.byte	35
 480 00db 27       		.byte	39
 481 00dc 23       		.byte	35
 482 00dd 20       		.byte	32
 483 00de 28       		.byte	40
 484 00df 55       		.byte	85
 485 00e0 7F       		.byte	127
 486 00e1 A5       		.byte	-91
 487 00e2 C2       		.byte	-62
 488 00e3 ED       		.byte	-19
 489 00e4 E4       		.byte	-28
 490 00e5 BE       		.byte	-66
 491 00e6 9F       		.byte	-97
 492 00e7 72       		.byte	114
 493 00e8 4D       		.byte	77
 494 00e9 2A       		.byte	42
 495 00ea 18       		.byte	24
 496 00eb 17       		.byte	23
 497 00ec 02       		.byte	2
 498 00ed 0D       		.byte	13
 499 00ee 17       		.byte	23
 500 00ef 21       		.byte	33
 501 00f0 20       		.byte	32
 502 00f1 25       		.byte	37
 503 00f2 00       		.byte	0
 504 00f3 00       		.space	1
 505              		.type	ECGlento, %object
 506              		.size	ECGlento, 115
 507              	ECGlento:
 508 00f4 23       		.byte	35
 509 00f5 22       		.byte	34
 510 00f6 27       		.byte	39
 511 00f7 2A       		.byte	42
 512 00f8 2C       		.byte	44
 513 00f9 31       		.byte	49
 514 00fa 3B       		.byte	59
 515 00fb 40       		.byte	64
 516 00fc 48       		.byte	72
 517 00fd 4D       		.byte	77
 518 00fe 46       		.byte	70
 519 00ff 3E       		.byte	62
 520 0100 3D       		.byte	61
 521 0101 2A       		.byte	42
 522 0102 24       		.byte	36
 523 0103 27       		.byte	39
 524 0104 29       		.byte	41
 525 0105 29       		.byte	41
 526 0106 22       		.byte	34
 527 0107 22       		.byte	34
 528 0108 38       		.byte	56
 529 0109 66       		.byte	102
 530 010a 8A       		.byte	-118
 531 010b B7       		.byte	-73
 532 010c E0       		.byte	-32
 533 010d FC       		.byte	-4
 534 010e D4       		.byte	-44
 535 010f B3       		.byte	-77
ARM GAS  C:\Users\nikod\AppData\Local\Temp\ccvTsnXv.s 			page 12


 536 0110 8E       		.byte	-114
 537 0111 61       		.byte	97
 538 0112 3B       		.byte	59
 539 0113 20       		.byte	32
 540 0114 20       		.byte	32
 541 0115 10       		.byte	16
 542 0116 07       		.byte	7
 543 0117 0C       		.byte	12
 544 0118 15       		.byte	21
 545 0119 1F       		.byte	31
 546 011a 2C       		.byte	44
 547 011b 2B       		.byte	43
 548 011c 24       		.byte	36
 549 011d 2D       		.byte	45
 550 011e 2A       		.byte	42
 551 011f 30       		.byte	48
 552 0120 3F       		.byte	63
 553 0121 3B       		.byte	59
 554 0122 49       		.byte	73
 555 0123 50       		.byte	80
 556 0124 56       		.byte	86
 557 0125 52       		.byte	82
 558 0126 59       		.byte	89
 559 0127 4F       		.byte	79
 560 0128 51       		.byte	81
 561 0129 4D       		.byte	77
 562 012a 42       		.byte	66
 563 012b 3A       		.byte	58
 564 012c 2A       		.byte	42
 565 012d 29       		.byte	41
 566 012e 26       		.byte	38
 567 012f 22       		.byte	34
 568 0130 26       		.byte	38
 569 0131 25       		.byte	37
 570 0132 24       		.byte	36
 571 0133 29       		.byte	41
 572 0134 28       		.byte	40
 573 0135 27       		.byte	39
 574 0136 24       		.byte	36
 575 0137 30       		.byte	48
 576 0138 31       		.byte	49
 577 0139 29       		.byte	41
 578 013a 2B       		.byte	43
 579 013b 2B       		.byte	43
 580 013c 2E       		.byte	46
 581 013d 2E       		.byte	46
 582 013e 26       		.byte	38
 583 013f 23       		.byte	35
 584 0140 2C       		.byte	44
 585 0141 22       		.byte	34
 586 0142 23       		.byte	35
 587 0143 26       		.byte	38
 588 0144 2C       		.byte	44
 589 0145 29       		.byte	41
 590 0146 29       		.byte	41
 591 0147 2E       		.byte	46
 592 0148 29       		.byte	41
ARM GAS  C:\Users\nikod\AppData\Local\Temp\ccvTsnXv.s 			page 13


 593 0149 21       		.byte	33
 594 014a 2C       		.byte	44
 595 014b 29       		.byte	41
 596 014c 27       		.byte	39
 597 014d 25       		.byte	37
 598 014e 24       		.byte	36
 599 014f 28       		.byte	40
 600 0150 24       		.byte	36
 601 0151 22       		.byte	34
 602 0152 23       		.byte	35
 603 0153 24       		.byte	36
 604 0154 24       		.byte	36
 605 0155 29       		.byte	41
 606 0156 2C       		.byte	44
 607 0157 2C       		.byte	44
 608 0158 2C       		.byte	44
 609 0159 2B       		.byte	43
 610 015a 2D       		.byte	45
 611 015b 2C       		.byte	44
 612 015c 24       		.byte	36
 613 015d 2E       		.byte	46
 614 015e 22       		.byte	34
 615 015f 2A       		.byte	42
 616 0160 24       		.byte	36
 617 0161 24       		.byte	36
 618 0162 26       		.byte	38
 619 0163 24       		.byte	36
 620 0164 28       		.byte	40
 621 0165 2E       		.byte	46
 622 0166 00       		.byte	0
 623              		.bss
 624              		.set	.LANCHOR0,. + 0
 625              		.type	cont, %object
 626              		.size	cont, 1
 627              	cont:
 628 0000 00       		.space	1
 629              		.text
 630              	.Letext0:
 631              		.file 2 "c:\\program files (x86)\\cypress\\psoc creator\\4.2\\psoc creator\\import\\gnu\\arm\\5.4.
 632              		.file 3 "c:\\program files (x86)\\cypress\\psoc creator\\4.2\\psoc creator\\import\\gnu\\arm\\5.4.
 633              		.file 4 "Generated_Source\\PSoC5/cytypes.h"
 634              		.file 5 "Generated_Source\\PSoC5/core_cm3.h"
 635              		.file 6 "Generated_Source\\PSoC5/LEDS.h"
 636              		.file 7 "Generated_Source\\PSoC5/SW.h"
 637              		.file 8 "Generated_Source\\PSoC5/VDAC8.h"
 638              		.file 9 "Generated_Source\\PSoC5/ISR.h"
 639              		.file 10 "Generated_Source\\PSoC5/CyLib.h"